(i__main__
attribute
p0
(dp1
S'attnames'
p2
(lp3
S'lat'
p4
aS'lon'
p5
aS'dot\x88\xc0\x8e\xa1\x90\xec\x8c\xfb'
p6
aS'norm ratio\x88\xc0\x8e\xa1\x90\xec\x8c\xfb'
p7
aS'dot\x8d\xf7\x93\x87'
p8
aS'norm ratio\x8d\xf7\x93\x87'
p9
asS'b_vecs'
p10
(lp11
cnumpy.core.multiarray
_reconstruct
p12
(cnumpy
ndarray
p13
(I0
tp14
S'b'
p15
tp16
Rp17
(I1
(L2L
tp18
cnumpy
dtype
p19
(S'f8'
p20
I0
I1
tp21
Rp22
(I3
S'<'
p23
NNNI-1
I-1
I0
tp24
bI00
S'> \xd0\x994\xee`@3M\xd8~2VA@'
p25
tp26
bag12
(g13
(I0
tp27
g15
tp28
Rp29
(I1
(L2L
tp30
g22
I00
S'\x94m\xe0\x0e\xd4\xed`@\xc3i\xc1\x8b\xbeTA@'
p31
tp32
basS'm_vec'
p33
g12
(g13
(I0
tp34
g15
tp35
Rp36
(I1
(L2L
tp37
g22
I00
S'\xefr\x11\xdf\t\xee`@\x97r\xbe\xd8{UA@'
p38
tp39
bsb.