(i__main__
attribute
p0
(dp1
S'attnames'
p2
(lp3
S'lat'
p4
aS'lon'
p5
aS'dot\x92\x96\x96\xbc\x8e\x9b'
p6
aS'norm ratio\x92\x96\x96\xbc\x8e\x9b'
p7
aS'dot\x96k\x88\xc9\x92O'
p8
aS'norm ratio\x96k\x88\xc9\x92O'
p9
asS'b_vecs'
p10
(lp11
cnumpy.core.multiarray
_reconstruct
p12
(cnumpy
ndarray
p13
(I0
tp14
S'b'
p15
tp16
Rp17
(I1
(L2L
tp18
cnumpy
dtype
p19
(S'f8'
p20
I0
I1
tp21
Rp22
(I3
S'<'
p23
NNNI-1
I-1
I0
tp24
bI00
S'\\\xab=\xec\x85\xed`@m\xaa\xee\x91\xcdaA@'
p25
tp26
bag12
(g13
(I0
tp27
g15
tp28
Rp29
(I1
(L2L
tp30
g22
I00
S'\x9a\x0b\\\x1ek\xed`@V\xd7\xa1\x9a\x92fA@'
p31
tp32
basS'm_vec'
p33
g12
(g13
(I0
tp34
g15
tp35
Rp36
(I1
(L2L
tp37
g22
I00
S'\xe4\x94oll\xed`@hx\xb3\x06\xefcA@'
p38
tp39
bsb.