(i__main__
attribute
p0
(dp1
S'attnames'
p2
(lp3
S'lat'
p4
aS'lon'
p5
aS'dot\x98Z\x8db\x93\xb9'
p6
aS'norm ratio\x98Z\x8db\x93\xb9'
p7
aS'dot\x8b\x9b\x8d\xe8'
p8
aS'norm ratio\x8b\x9b\x8d\xe8'
p9
aS'dot\x90\xdb\x92\xc3\x96{\x8eR'
p10
aS'norm ratio\x90\xdb\x92\xc3\x96{\x8eR'
p11
asS'b_vecs'
p12
(lp13
cnumpy.core.multiarray
_reconstruct
p14
(cnumpy
ndarray
p15
(I0
tp16
S'b'
p17
tp18
Rp19
(I1
(L2L
tp20
cnumpy
dtype
p21
(S'f8'
p22
I0
I1
tp23
Rp24
(I3
S'<'
p25
NNNI-1
I-1
I0
tp26
bI00
S'\xfa&M\x83\xa2\xe7`@(\xb8XQ\x83[A@'
p27
tp28
bag14
(g15
(I0
tp29
g17
tp30
Rp31
(I1
(L2L
tp32
g24
I00
S'A\x9c\x87\x13\x98\xe8`@IJz\x18Z[A@'
p33
tp34
bag14
(g15
(I0
tp35
g17
tp36
Rp37
(I1
(L2L
tp38
g24
I00
S'5\xea!\x1a\xdd\xe8`@\xab#G:\x03]A@'
p39
tp40
basS'm_vec'
p41
g14
(g15
(I0
tp42
g17
tp43
Rp44
(I1
(L2L
tp45
g24
I00
S'\x8d}\xc9\xc6\x83;`@\xb5\x85\xe7\xa5be@@'
p46
tp47
bsb.