(i__main__
attribute
p0
(dp1
S'attnames'
p2
(lp3
S'lat'
p4
aS'lon'
p5
aS'dot\x96\xec\x8d\xe8'
p6
aS'norm ratio\x96\xec\x8d\xe8'
p7
aS'dotkonoikenitta'
p8
aS'norm ratiokonoikenitta'
p9
asS'b_vecs'
p10
(lp11
cnumpy.core.multiarray
_reconstruct
p12
(cnumpy
ndarray
p13
(I0
tp14
S'b'
p15
tp16
Rp17
(I1
(L2L
tp18
cnumpy
dtype
p19
(S'f8'
p20
I0
I1
tp21
Rp22
(I3
S'<'
p23
NNNI-1
I-1
I0
tp24
bI00
S']n0\xd4a\xf4`@m\xcdV^\xf2[A@'
p25
tp26
bag12
(g13
(I0
tp27
g15
tp28
Rp29
(I1
(L2L
tp30
g22
I00
S'\xcb\xea\xc2\xb4\x14\xf3`@\x02\xcaK\xa3nYA@'
p31
tp32
basS'm_vec'
p33
g12
(g13
(I0
tp34
g15
tp35
Rp36
(I1
(L2L
tp37
g22
I00
S'\tS\x94K\xe3\xf3`@\xa2\x98\xbc\x01fZA@'
p38
tp39
bsb.