(i__main__
attribute
p0
(dp1
S'attnames'
p2
(lp3
S'lat'
p4
aS'lon'
p5
aS'dot\x8eO\x8b{'
p6
aS'norm ratio\x8eO\x8b{'
p7
aS'dot\x90_\x8c\xcb'
p8
aS'norm ratio\x90_\x8c\xcb'
p9
aS'dot\x8eO\x83m\x8b{'
p10
aS'norm ratio\x8eO\x83m\x8b{'
p11
aS'dot\x90\xbc\x8c\xb3\x92\xac'
p12
aS'norm ratio\x90\xbc\x8c\xb3\x92\xac'
p13
asS'b_vecs'
p14
(lp15
cnumpy.core.multiarray
_reconstruct
p16
(cnumpy
ndarray
p17
(I0
tp18
S'b'
p19
tp20
Rp21
(I1
(L2L
tp22
cnumpy
dtype
p23
(S'f8'
p24
I0
I1
tp25
Rp26
(I3
S'<'
p27
NNNI-1
I-1
I0
tp28
bI00
S'\xceV^\xf2?\xe6`@~\x01\xbdp\xe7XA@'
p29
tp30
bag16
(g17
(I0
tp31
g19
tp32
Rp33
(I1
(L2L
tp34
g26
I00
S'+\xdb\x87\xbc\xe5(a@\x19:vP\x89UA@'
p35
tp36
bag16
(g17
(I0
tp37
g19
tp38
Rp39
(I1
(L2L
tp40
g26
I00
S'XZF\xea=\xe6`@\xb5/\xa0\x17\xeeXA@'
p41
tp42
bag16
(g17
(I0
tp43
g19
tp44
Rp45
(I1
(L2L
tp46
g26
I00
S'\t\x16\x873\xbf\xe5`@\x8fj\xd8\xef\x89WA@'
p47
tp48
basS'm_vec'
p49
g16
(g17
(I0
tp50
g19
tp51
Rp52
(I1
(L2L
tp53
g26
I00
S'\xa2E\xb6\xf3\xfd\xe5`@>\xcd\xc9\x8bLXA@'
p54
tp55
bsb.