(i__main__
attribute
p0
(dp1
S'attnames'
p2
(lp3
S'lat'
p4
aS'lon'
p5
aS'dot\x8fZ\x8bg'
p6
aS'norm ratio\x8fZ\x8bg'
p7
aS'dot\x93\xe5'
p8
aS'norm ratio\x93\xe5'
p9
asS'b_vecs'
p10
(lp11
cnumpy.core.multiarray
_reconstruct
p12
(cnumpy
ndarray
p13
(I0
tp14
S'b'
p15
tp16
Rp17
(I1
(L2L
tp18
cnumpy
dtype
p19
(S'f8'
p20
I0
I1
tp21
Rp22
(I3
S'<'
p23
NNNI-1
I-1
I0
tp24
bI00
S'\x8d}\xc9\xc6\x83;`@\xb5\x85\xe7\xa5be@@'
p25
tp26
bag12
(g13
(I0
tp27
g15
tp28
Rp29
(I1
(L2L
tp30
g22
I00
S'\x0fa\xfc4\xee\xe6`@0\xd4a\x85[ZA@'
p31
tp32
basS'm_vec'
p33
g12
(g13
(I0
tp34
g15
tp35
Rp36
(I1
(L2L
tp37
g22
I00
S'\xfa&M\x83\xa2\xe7`@(\xb8XQ\x83[A@'
p38
tp39
bsb.