(i__main__
attribute
p0
(dp1
S'attnames'
p2
(lp3
S'lat'
p4
aS'lon'
p5
aS'dot\x91\x90\x92\xc3'
p6
aS'norm ratio\x91\x90\x92\xc3'
p7
aS'dotseta'
p8
aS'norm ratioseta'
p9
asS'b_vecs'
p10
(lp11
cnumpy.core.multiarray
_reconstruct
p12
(cnumpy
ndarray
p13
(I0
tp14
S'b'
p15
tp16
Rp17
(I1
(L2L
tp18
cnumpy
dtype
p19
(S'f8'
p20
I0
I1
tp21
Rp22
(I3
S'<'
p23
NNNI-1
I-1
I0
tp24
bI00
S'\xf9\x95\xbd[\x0f\xff`@tPx\xbf\xc0\x82A@'
p25
tp26
bag12
(g13
(I0
tp27
g15
tp28
Rp29
(I1
(L2L
tp30
g22
I00
S"'0\x9d\xd6\xad\xfd`@\xf2\x19\x9a\xfc`~A@"
p31
tp32
basS'm_vec'
p33
g12
(g13
(I0
tp34
g15
tp35
Rp36
(I1
(L2L
tp37
g22
I00
S'$\xef\x1c\xcaP\xfe`@\x8av\x15R~\x80A@'
p38
tp39
bsb.