(i__main__
attribute
p0
(dp1
S'attnames'
p2
(lp3
S'lat'
p4
aS'lon'
p5
aS'dot\x91\xe5\x88\xe4\x92\xac'
p6
aS'norm ratio\x91\xe5\x88\xe4\x92\xac'
p7
aS'dotkamata'
p8
aS'norm ratiokamata'
p9
asS'b_vecs'
p10
(lp11
cnumpy.core.multiarray
_reconstruct
p12
(cnumpy
ndarray
p13
(I0
tp14
S'b'
p15
tp16
Rp17
(I1
(L2L
tp18
cnumpy
dtype
p19
(S'f8'
p20
I0
I1
tp21
Rp22
(I3
S'<'
p23
NNNI-1
I-1
I0
tp24
bI00
S'\xc2\x17&S\x85wa@r\x16\xf6\xb4\xc3\xcdA@'
p25
tp26
bag12
(g13
(I0
tp27
g15
tp28
Rp29
(I1
(L2L
tp30
g22
I00
S'&\x0bN3Swa@\xce\xb7\xf4\x1e\x1d\xc8A@'
p31
tp32
basS'm_vec'
p33
g12
(g13
(I0
tp34
g15
tp35
Rp36
(I1
(L2L
tp37
g22
I00
S'\xfa\xabl\xc48wa@5\xf8\xb18R\xcbA@'
p38
tp39
bsb.