(i__main__
attribute
p0
(dp1
S'attnames'
p2
(lp3
S'lat'
p4
aS'lon'
p5
aS'dot\x92\xdf\x8c\xa9'
p6
aS'norm ratio\x92\xdf\x8c\xa9'
p7
aS'dot\x90K\x8e\xe8'
p8
aS'norm ratio\x90K\x8e\xe8'
p9
aS'dotkamata'
p10
aS'norm ratiokamata'
p11
asS'b_vecs'
p12
(lp13
cnumpy.core.multiarray
_reconstruct
p14
(cnumpy
ndarray
p15
(I0
tp16
S'b'
p17
tp18
Rp19
(I1
(L2L
tp20
cnumpy
dtype
p21
(S'f8'
p22
I0
I1
tp23
Rp24
(I3
S'<'
p25
NNNI-1
I-1
I0
tp26
bI00
S'\x8fpZ\xf0\xa2ua@\x14[A\xd3\x12\xc1A@'
p27
tp28
bag14
(g15
(I0
tp29
g17
tp30
Rp31
(I1
(L2L
tp32
g24
I00
S'\x02\xbb\x9a<\xe5ua@\xe2\x95$\xcf\xf5\xc3A@'
p33
tp34
bag14
(g15
(I0
tp35
g17
tp36
Rp37
(I1
(L2L
tp38
g24
I00
S'\xd9\x16\xaf\xc3\xe2va@}\x04\xfe\xf0\xf3\xc7A@'
p39
tp40
basS'm_vec'
p41
g14
(g15
(I0
tp42
g17
tp43
Rp44
(I1
(L2L
tp45
g24
I00
S'k\x0e\x10\xccQva@\xa5\x80\xb4\xff\x01\xc4A@'
p46
tp47
bsb.