(i__main__
attribute
p0
(dp1
S'attnames'
p2
(lp3
S'lat'
p4
aS'lon'
p5
aS'dot\x8fa\x92J'
p6
aS'norm ratio\x8fa\x92J'
p7
aS'dot\x92\x86\x96\xda\x8d\x95'
p8
aS'norm ratio\x92\x86\x96\xda\x8d\x95'
p9
aS'dot\x8dL\x94\xf6'
p10
aS'norm ratio\x8dL\x94\xf6'
p11
aS'dot\x96\xda\x8d\x95'
p12
aS'norm ratio\x96\xda\x8d\x95'
p13
asS'b_vecs'
p14
(lp15
cnumpy.core.multiarray
_reconstruct
p16
(cnumpy
ndarray
p17
(I0
tp18
S'b'
p19
tp20
Rp21
(I1
(L2L
tp22
cnumpy
dtype
p23
(S'f8'
p24
I0
I1
tp25
Rp26
(I3
S'<'
p27
NNNI-1
I-1
I0
tp28
bI00
S'\xf1d73zva@\xc3\x9ev\xf8k\xd4A@'
p29
tp30
bag16
(g17
(I0
tp31
g19
tp32
Rp33
(I1
(L2L
tp34
g26
I00
S'\x90im\x1a[va@\x0b\xb3\xd0\xcei\xd2A@'
p35
tp36
bag16
(g17
(I0
tp37
g19
tp38
Rp39
(I1
(L2L
tp40
g26
I00
S'cc^G\x1cwa@\ro\xd6\xe0}\xd3A@'
p41
tp42
bag16
(g17
(I0
tp43
g19
tp44
Rp45
(I1
(L2L
tp46
g26
I00
S'7\x89A`\xe5va@{\xbc\x90\x0e\x0f\xd1A@'
p47
tp48
basS'm_vec'
p49
g16
(g17
(I0
tp50
g19
tp51
Rp52
(I1
(L2L
tp53
g26
I00
S'4(\x9a\x07\xb0va@\xbf\xd3d\xc6\xdb\xd2A@'
p54
tp55
bsb.