(i__main__
attribute
p0
(dp1
S'attnames'
p2
(lp3
S'lat'
p4
aS'lon'
p5
aS'dot\x8fZ\x8bg'
p6
aS'norm ratio\x8fZ\x8bg'
p7
aS'dot\x8db\x93\xec\x8eR\x8e\xe8'
p8
aS'norm ratio\x8db\x93\xec\x8eR\x8e\xe8'
p9
asS'b_vecs'
p10
(lp11
cnumpy.core.multiarray
_reconstruct
p12
(cnumpy
ndarray
p13
(I0
tp14
S'b'
p15
tp16
Rp17
(I1
(L2L
tp18
cnumpy
dtype
p19
(S'f8'
p20
I0
I1
tp21
Rp22
(I3
S'<'
p23
NNNI-1
I-1
I0
tp24
bI00
S'\x7f\x8fU\xa5H\xe8`@Q.\x8d_x\\A@'
p25
tp26
bag12
(g13
(I0
tp27
g15
tp28
Rp29
(I1
(L2L
tp30
g22
I00
S')\x95\xf0\x84^\xe9`@\x98\xf78\xd3\x84]A@'
p31
tp32
basS'm_vec'
p33
g12
(g13
(I0
tp34
g15
tp35
Rp36
(I1
(L2L
tp37
g22
I00
S'5\xea!\x1a\xdd\xe8`@\xab#G:\x03]A@'
p38
tp39
bsb.