(i__main__
attribute
p0
(dp1
S'attnames'
p2
(lp3
S'lat'
p4
aS'lon'
p5
aS'dot\x96k\x8f\xbc\x8c\xcb'
p6
aS'norm ratio\x96k\x8f\xbc\x8c\xcb'
p7
aS'dot\x8b\xe0\x92\xac'
p8
aS'norm ratio\x8b\xe0\x92\xac'
p9
aS'dot\x8f\xe3\x96{\x8b\xbd'
p10
aS'norm ratio\x8f\xe3\x96{\x8b\xbd'
p11
asS'b_vecs'
p12
(lp13
cnumpy.core.multiarray
_reconstruct
p14
(cnumpy
ndarray
p15
(I0
tp16
S'b'
p17
tp18
Rp19
(I1
(L2L
tp20
cnumpy
dtype
p21
(S'f8'
p22
I0
I1
tp23
Rp24
(I3
S'<'
p25
NNNI-1
I-1
I0
tp26
bI00
S'm\xac\xc4<+}a@\xfad\xc5pu\xe6A@'
p27
tp28
bag14
(g15
(I0
tp29
g17
tp30
Rp31
(I1
(L2L
tp32
g24
I00
S'78\x11\xfd\xda{a@\x8e\xcb\xb8\xa9\x81\xe2A@'
p33
tp34
bag14
(g15
(I0
tp35
g17
tp36
Rp37
(I1
(L2L
tp38
g24
I00
S'\xe9c> P}a@\x1c\xb4W\x1f\x0f\xe5A@'
p39
tp40
basS'm_vec'
p41
g14
(g15
(I0
tp42
g17
tp43
Rp44
(I1
(L2L
tp45
g24
I00
S'\x8e={.\xd3|a@XP\x18\x94i\xe4A@'
p46
tp47
bsb.