(i__main__
attribute
p0
(dp1
S'attnames'
p2
(lp3
S'lat'
p4
aS'lon'
p5
aS'dot\x93\x8c\x91D\x8b\xb4'
p6
aS'norm ratio\x93\x8c\x91D\x8b\xb4'
p7
aS'dot\x96\x8b\x92\xa3\x96{\x8b\xbd'
p8
aS'norm ratio\x96\x8b\x92\xa3\x96{\x8b\xbd'
p9
asS'b_vecs'
p10
(lp11
cnumpy.core.multiarray
_reconstruct
p12
(cnumpy
ndarray
p13
(I0
tp14
S'b'
p15
tp16
Rp17
(I1
(L2L
tp18
cnumpy
dtype
p19
(S'f8'
p20
I0
I1
tp21
Rp22
(I3
S'<'
p23
NNNI-1
I-1
I0
tp24
bI00
S"%\xaf\xce1 \x80a@\xc60'h\x93\xd9A@"
p25
tp26
bag12
(g13
(I0
tp27
g15
tp28
Rp29
(I1
(L2L
tp30
g22
I00
S'\x9c1\xcc\tZ\x81a@)\x99\x9c\xda\x19\xd6A@'
p31
tp32
basS'm_vec'
p33
g12
(g13
(I0
tp34
g15
tp35
Rp36
(I1
(L2L
tp37
g22
I00
S'\x1d"nN\xa5\x80a@ND\xbf\xb6~\xd8A@'
p38
tp39
bsb.