(i__main__
attribute
p0
(dp1
S'attnames'
p2
(lp3
S'lat'
p4
aS'lon'
p5
aS'dot\x90M\x8bM\x8eR\x89\xba'
p6
aS'norm ratio\x90M\x8bM\x8eR\x89\xba'
p7
aS'dot\x96@\x97\xb2\x8e\x9b'
p8
aS'norm ratio\x96@\x97\xb2\x8e\x9b'
p9
aS'dot\x8eO\x8b\xbd'
p10
aS'norm ratio\x8eO\x8b\xbd'
p11
aS'dothatakeda'
p12
aS'norm ratiohatakeda'
p13
asS'b_vecs'
p14
(lp15
cnumpy.core.multiarray
_reconstruct
p16
(cnumpy
ndarray
p17
(I0
tp18
S'b'
p19
tp20
Rp21
(I1
(L2L
tp22
cnumpy
dtype
p23
(S'f8'
p24
I0
I1
tp25
Rp26
(I3
S'<'
p27
NNNI-1
I-1
I0
tp28
bI00
S'\t\xa3Y\xd9>\xf6`@\xc9\x02&p\xebLA@'
p29
tp30
bag16
(g17
(I0
tp31
g19
tp32
Rp33
(I1
(L2L
tp34
g26
I00
S'<\x16\xdb\xa4\xa2\xf7`@\x86\xc8\xe9\xeb\xf9LA@'
p35
tp36
bag16
(g17
(I0
tp37
g19
tp38
Rp39
(I1
(L2L
tp40
g26
I00
S"j\rJ=p\xf6`@'\x96\xa5\xe7'LA@"
p41
tp42
bag16
(g17
(I0
tp43
g19
tp44
Rp45
(I1
(L2L
tp46
g26
I00
S'9\x82T\x8a\x9d\xf6`@\xfbw}\xe6\xacJA@'
p47
tp48
basS'm_vec'
p49
g16
(g17
(I0
tp50
g19
tp51
Rp52
(I1
(L2L
tp53
g26
I00
S'\xf7\xaeA_z\xf6`@\xca\xfd\x0eE\x81LA@'
p54
tp55
bsb.