(i__main__
attribute
p0
(dp1
S'attnames'
p2
(lp3
S'lat'
p4
aS'lon'
p5
aS'dot\x95\xba\x8c\xc9'
p6
aS'norm ratio\x95\xba\x8c\xc9'
p7
aS'dot\x8c\xb3\x92\xac'
p8
aS'norm ratio\x8c\xb3\x92\xac'
p9
asS'b_vecs'
p10
(lp11
cnumpy.core.multiarray
_reconstruct
p12
(cnumpy
ndarray
p13
(I0
tp14
S'b'
p15
tp16
Rp17
(I1
(L2L
tp18
cnumpy
dtype
p19
(S'f8'
p20
I0
I1
tp21
Rp22
(I3
S'<'
p23
NNNI-1
I-1
I0
tp24
bI00
S'\x8fn\x84EE\xe5`@Y\xc1oC\x8cUA@'
p25
tp26
bag12
(g13
(I0
tp27
g15
tp28
Rp29
(I1
(L2L
tp30
g22
I00
S'\xa2E\xb6\xf3\xfd\xe5`@>\xcd\xc9\x8bLXA@'
p31
tp32
basS'm_vec'
p33
g12
(g13
(I0
tp34
g15
tp35
Rp36
(I1
(L2L
tp37
g22
I00
S'\x93B\x0fk\xa0\xe5`@\x0fd=\xb5\xfaVA@'
p38
tp39
bsb.