(i__main__
attribute
p0
(dp1
S'attnames'
p2
(lp3
S'lat'
p4
aS'lon'
p5
aS'dot\x98@\x8f\xc0'
p6
aS'norm ratio\x98@\x8f\xc0'
p7
aS'dot\x91\xe5\x90X'
p8
aS'norm ratio\x91\xe5\x90X'
p9
aS'dot\x96\xee\x8c\xfb\x93n'
p10
aS'norm ratio\x96\xee\x8c\xfb\x93n'
p11
aS'dot\x90\xec\x8d\xe8'
p12
aS'norm ratio\x90\xec\x8d\xe8'
p13
asS'b_vecs'
p14
(lp15
cnumpy.core.multiarray
_reconstruct
p16
(cnumpy
ndarray
p17
(I0
tp18
S'b'
p19
tp20
Rp21
(I1
(L2L
tp22
cnumpy
dtype
p23
(S'f8'
p24
I0
I1
tp25
Rp26
(I3
S'<'
p27
NNNI-1
I-1
I0
tp28
bI00
S'\xddxwd\xacva@\xa2$$\xd26\xc8A@'
p29
tp30
bag16
(g17
(I0
tp31
g19
tp32
Rp33
(I1
(L2L
tp34
g26
I00
S'\xfa\xabl\xc48wa@5\xf8\xb18R\xcbA@'
p35
tp36
bag16
(g17
(I0
tp37
g19
tp38
Rp39
(I1
(L2L
tp40
g26
I00
S'M/1\x96iva@\x12\x9f;\xc1\xfe\xc7A@'
p41
tp42
bag16
(g17
(I0
tp43
g19
tp44
Rp45
(I1
(L2L
tp46
g26
I00
S'k\x0e\x10\xccQva@\xa5\x80\xb4\xff\x01\xc4A@'
p47
tp48
basS'm_vec'
p49
g16
(g17
(I0
tp50
g19
tp51
Rp52
(I1
(L2L
tp53
g26
I00
S'\xe2[X7\xdeva@k|&\xfb\xe7\xc7A@'
p54
tp55
bsb.