(i__main__
attribute
p0
(dp1
S'attnames'
p2
(lp3
S'lat'
p4
aS'lon'
p5
aS'dot\x91\xe5\x8bv\x95\xdb'
p6
aS'norm ratio\x91\xe5\x8bv\x95\xdb'
p7
aS'dot\x96\xbe\x90\xce'
p8
aS'norm ratio\x96\xbe\x90\xce'
p9
asS'b_vecs'
p10
(lp11
cnumpy.core.multiarray
_reconstruct
p12
(cnumpy
ndarray
p13
(I0
tp14
S'b'
p15
tp16
Rp17
(I1
(L2L
tp18
cnumpy
dtype
p19
(S'f8'
p20
I0
I1
tp21
Rp22
(I3
S'<'
p23
NNNI-1
I-1
I0
tp24
bI00
S'\xa1\x86oa\xdd\xf8`@\xca\x1c\xcb\xbb\xeaoA@'
p25
tp26
bag12
(g13
(I0
tp27
g15
tp28
Rp29
(I1
(L2L
tp30
g22
I00
S'g\x9c\x86\xa8\xc2\xdf`@\xae-</\x15SA@'
p31
tp32
basS'm_vec'
p33
g12
(g13
(I0
tp34
g15
tp35
Rp36
(I1
(L2L
tp37
g22
I00
S'\x18\x07\x97\x8e\xb9\xde`@(\n\xf4\x89<UA@'
p38
tp39
bsb.